; Function Attrs: mustprogress nounwind uwtable
define dso_local noundef i32 @napi_open_handle_scope(ptr noundef %env, ptr noundef writeonly %result) local_unnamed_addr #3 {
entry:
  %cmp = icmp eq ptr %env, null
  br i1 %cmp, label %return, label %do.end

do.end:                                           ; preds = %entry
  %module_api_version.i = getelementptr inbounds i8, ptr %env, i64 184
  %0 = load i32, ptr %module_api_version.i, align 8
  %cmp.i = icmp eq i32 %0, 2147483647
  br i1 %cmp.i, label %land.lhs.true.i, label %_ZN10napi_env__13CheckGCAccessEv.exit

land.lhs.true.i:                                  ; preds = %do.end
  %in_gc_finalizer.i = getelementptr inbounds i8, ptr %env, i64 188
  %1 = load i8, ptr %in_gc_finalizer.i, align 4
  %2 = and i8 %1, 1
  %tobool.not.i = icmp eq i8 %2, 0
  br i1 %tobool.not.i, label %_ZN10napi_env__13CheckGCAccessEv.exit, label %if.then.i

if.then.i:                                        ; preds = %land.lhs.true.i
  tail call void @_ZN6v8impl12OnFatalErrorEPKcS1_(ptr noundef null, ptr noundef nonnull @.str.41) #28
  unreachable

_ZN10napi_env__13CheckGCAccessEv.exit:            ; preds = %do.end, %land.lhs.true.i
  %cmp4.not = icmp eq ptr %result, null
  br i1 %cmp4.not, label %if.then5, label %do.end7

if.then5:                                         ; preds = %_ZN10napi_env__13CheckGCAccessEv.exit
  %error_code1.i = getelementptr inbounds i8, ptr %env, i64 156
  store i32 1, ptr %error_code1.i, align 4
  %engine_error_code3.i = getelementptr inbounds i8, ptr %env, i64 152
  store i32 0, ptr %engine_error_code3.i, align 8
  %engine_reserved5.i = getelementptr inbounds i8, ptr %env, i64 144
  store ptr null, ptr %engine_reserved5.i, align 8
  br label %return

do.end7:                                          ; preds = %_ZN10napi_env__13CheckGCAccessEv.exit
  %call8 = tail call noalias noundef nonnull dereferenceable(24) ptr @_Znwm(i64 noundef 24) #25
  %isolate = getelementptr inbounds i8, ptr %env, i64 8
  %3 = load ptr, ptr %isolate, align 8
  tail call void @_ZN2v811HandleScopeC1EPNS_7IsolateE(ptr noundef nonnull align 8 dereferenceable(24) %call8, ptr noundef %3) #24
  store ptr %call8, ptr %result, align 8
  %open_handle_scopes = getelementptr inbounds i8, ptr %env, i64 160
  %4 = load i32, ptr %open_handle_scopes, align 8
  %inc = add nsw i32 %4, 1
  store i32 %inc, ptr %open_handle_scopes, align 8
  %last_error.i = getelementptr inbounds i8, ptr %env, i64 136
  tail call void @llvm.memset.p0.i64(ptr noundef nonnull align 8 dereferenceable(24) %last_error.i, i8 0, i64 24, i1 false)
  br label %return

return:                                           ; preds = %entry, %do.end7, %if.then5
  %retval.0 = phi i32 [ 0, %do.end7 ], [ 1, %if.then5 ], [ 1, %entry ]
  ret i32 %retval.0
}